; Function Attrs: mustprogress uwtable
define hidden void @_ZN4cvc58internal6theory11quantifiers14TermProperties15composePropertyERS3_(ptr noundef nonnull align 8 dereferenceable(24) %0, ptr noundef nonnull align 8 dereferenceable(24) %1) local_unnamed_addr #4 align 2 personality ptr @__gxx_personality_v0 {
  %3 = alloca %"class.cvc5::internal::NodeTemplate", align 8
  %4 = getelementptr inbounds nuw i8, ptr %1, i64 16
  %5 = load ptr, ptr %4, align 8, !tbaa !3
  %6 = load atomic i8, ptr @_ZGVZN4cvc58internal4expr9NodeValue4nullEvE6s_null acquire, align 8
  %7 = icmp eq i8 %6, 0
  br i1 %7, label %8, label %_ZNK4cvc58internal12NodeTemplateILb1EE6isNullEv.exit, !prof !9

8:                                                ; preds = %2
  %9 = tail call i32 @__cxa_guard_acquire(ptr nonnull @_ZGVZN4cvc58internal4expr9NodeValue4nullEvE6s_null) #19
  %.not.i.i = icmp eq i32 %9, 0
  br i1 %.not.i.i, label %_ZNK4cvc58internal12NodeTemplateILb1EE6isNullEv.exit, label %10

10:                                               ; preds = %8
  %11 = invoke noalias noundef nonnull dereferenceable(24) ptr @_Znwm(i64 noundef 24) #21
          to label %12 unwind label %14

12:                                               ; preds = %10
  store i64 1152920405095219200, ptr %11, align 8
  %13 = getelementptr inbounds nuw i8, ptr %11, i64 8
  tail call void @llvm.memset.p0.i64(ptr noundef nonnull align 8 dereferenceable(16) %13, i8 0, i64 16, i1 false)
  store ptr %11, ptr @_ZZN4cvc58internal4expr9NodeValue4nullEvE6s_null, align 8, !tbaa !10
  tail call void @__cxa_guard_release(ptr nonnull @_ZGVZN4cvc58internal4expr9NodeValue4nullEvE6s_null) #19
  br label %_ZNK4cvc58internal12NodeTemplateILb1EE6isNullEv.exit

common.resume:                                    ; preds = %102, %29, %14
  %common.resume.op = phi { ptr, i32 } [ %15, %14 ], [ %30, %29 ], [ %103, %102 ]
  resume { ptr, i32 } %common.resume.op

14:                                               ; preds = %10
  %15 = landingpad { ptr, i32 }
          cleanup
  tail call void @__cxa_guard_abort(ptr nonnull @_ZGVZN4cvc58internal4expr9NodeValue4nullEvE6s_null) #19
  br label %common.resume

_ZNK4cvc58internal12NodeTemplateILb1EE6isNullEv.exit: ; preds = %2, %8, %12
  %16 = load ptr, ptr @_ZZN4cvc58internal4expr9NodeValue4nullEvE6s_null, align 8, !tbaa !10
  %17 = icmp eq ptr %5, %16
  br i1 %17, label %_ZN4cvc58internal12NodeTemplateILb1EEaSERKS2_.exit, label %18

18:                                               ; preds = %_ZNK4cvc58internal12NodeTemplateILb1EE6isNullEv.exit
  %19 = getelementptr inbounds nuw i8, ptr %0, i64 16
  %20 = load ptr, ptr %19, align 8, !tbaa !3
  %21 = load atomic i8, ptr @_ZGVZN4cvc58internal4expr9NodeValue4nullEvE6s_null acquire, align 8
  %22 = icmp eq i8 %21, 0
  br i1 %22, label %23, label %_ZNK4cvc58internal12NodeTemplateILb1EE6isNullEv.exit6, !prof !9

23:                                               ; preds = %18
  %24 = tail call i32 @__cxa_guard_acquire(ptr nonnull @_ZGVZN4cvc58internal4expr9NodeValue4nullEvE6s_null) #19
  %.not.i.i5 = icmp eq i32 %24, 0
  br i1 %.not.i.i5, label %_ZNK4cvc58internal12NodeTemplateILb1EE6isNullEv.exit6, label %25

25:                                               ; preds = %23
  %26 = invoke noalias noundef nonnull dereferenceable(24) ptr @_Znwm(i64 noundef 24) #21
          to label %27 unwind label %29

27:                                               ; preds = %25
  store i64 1152920405095219200, ptr %26, align 8
  %28 = getelementptr inbounds nuw i8, ptr %26, i64 8
  tail call void @llvm.memset.p0.i64(ptr noundef nonnull align 8 dereferenceable(16) %28, i8 0, i64 16, i1 false)
  store ptr %26, ptr @_ZZN4cvc58internal4expr9NodeValue4nullEvE6s_null, align 8, !tbaa !10
  tail call void @__cxa_guard_release(ptr nonnull @_ZGVZN4cvc58internal4expr9NodeValue4nullEvE6s_null) #19
  br label %_ZNK4cvc58internal12NodeTemplateILb1EE6isNullEv.exit6

29:                                               ; preds = %25
  %30 = landingpad { ptr, i32 }
          cleanup
  tail call void @__cxa_guard_abort(ptr nonnull @_ZGVZN4cvc58internal4expr9NodeValue4nullEvE6s_null) #19
  br label %common.resume

_ZNK4cvc58internal12NodeTemplateILb1EE6isNullEv.exit6: ; preds = %18, %23, %27
  %31 = load ptr, ptr @_ZZN4cvc58internal4expr9NodeValue4nullEvE6s_null, align 8, !tbaa !10
  %32 = icmp eq ptr %20, %31
  br i1 %32, label %33, label %61

33:                                               ; preds = %_ZNK4cvc58internal12NodeTemplateILb1EE6isNullEv.exit6
  %34 = load ptr, ptr %19, align 8, !tbaa !3
  %35 = load ptr, ptr %4, align 8, !tbaa !3
  %.not.i = icmp eq ptr %34, %35
  br i1 %.not.i, label %_ZN4cvc58internal12NodeTemplateILb1EEaSERKS2_.exit, label %36, !prof !11

36:                                               ; preds = %33
  %37 = load i64, ptr %34, align 8
  %38 = and i64 %37, 1152920405095219200
  %.not.i.i7 = icmp eq i64 %38, 1152920405095219200
  br i1 %.not.i.i7, label %_ZN4cvc58internal4expr9NodeValue3decEv.exit.i, label %39, !prof !11

39:                                               ; preds = %36
  %40 = add i64 %37, 1152920405095219200
  %41 = and i64 %40, 1152920405095219200
  %42 = and i64 %37, -1152920405095219201
  %43 = or disjoint i64 %41, %42
  store i64 %43, ptr %34, align 8
  %44 = icmp eq i64 %41, 0
  br i1 %44, label %45, label %_ZN4cvc58internal4expr9NodeValue3decEv.exit.i, !prof !11

45:                                               ; preds = %39
  tail call void @_ZN4cvc58internal4expr9NodeValue15markForDeletionEv(ptr noundef nonnull align 8 dereferenceable(24) %34)
  br label %_ZN4cvc58internal4expr9NodeValue3decEv.exit.i

_ZN4cvc58internal4expr9NodeValue3decEv.exit.i:    ; preds = %45, %39, %36
  %46 = load ptr, ptr %4, align 8, !tbaa !3
  store ptr %46, ptr %19, align 8, !tbaa !3
  %47 = load i64, ptr %46, align 8
  %48 = lshr i64 %47, 40
  %49 = trunc nuw nsw i64 %48 to i32
  %50 = and i32 %49, 1048575
  %51 = icmp samesign ult i32 %50, 1048574
  br i1 %51, label %52, label %57, !prof !12

52:                                               ; preds = %_ZN4cvc58internal4expr9NodeValue3decEv.exit.i
  %53 = add i64 %47, 1099511627776
  %54 = and i64 %53, 1152920405095219200
  %55 = and i64 %47, -1152920405095219201
  %56 = or disjoint i64 %54, %55
  store i64 %56, ptr %46, align 8
  br label %_ZN4cvc58internal12NodeTemplateILb1EEaSERKS2_.exit

57:                                               ; preds = %_ZN4cvc58internal4expr9NodeValue3decEv.exit.i
  %58 = icmp eq i32 %50, 1048574
  br i1 %58, label %59, label %_ZN4cvc58internal12NodeTemplateILb1EEaSERKS2_.exit, !prof !11

59:                                               ; preds = %57
  %60 = or i64 %47, 1152920405095219200
  store i64 %60, ptr %46, align 8
  tail call void @_ZN4cvc58internal4expr9NodeValue20markRefCountMaxedOutEv(ptr noundef nonnull align 8 dereferenceable(24) %46)
  br label %_ZN4cvc58internal12NodeTemplateILb1EEaSERKS2_.exit

61:                                               ; preds = %_ZNK4cvc58internal12NodeTemplateILb1EE6isNullEv.exit6
  call void @llvm.lifetime.start.p0(i64 8, ptr nonnull %3) #19
  call void @_ZN4cvc58internal6theory5arith13multConstantsERKNS0_12NodeTemplateILb1EEES6_(ptr dead_on_unwind nonnull writable sret(%"class.cvc5::internal::NodeTemplate") align 8 %3, ptr noundef nonnull align 8 dereferenceable(8) %19, ptr noundef nonnull align 8 dereferenceable(8) %4)
  %62 = load ptr, ptr %19, align 8, !tbaa !3
  %63 = load ptr, ptr %3, align 8, !tbaa !3
  %.not.i8 = icmp eq ptr %62, %63
  br i1 %.not.i8, label %_ZN4cvc58internal12NodeTemplateILb1EEaSERKS2_.exit12, label %64, !prof !11

64:                                               ; preds = %61
  %65 = load i64, ptr %62, align 8
  %66 = and i64 %65, 1152920405095219200
  %.not.i.i9 = icmp eq i64 %66, 1152920405095219200
  br i1 %.not.i.i9, label %_ZN4cvc58internal4expr9NodeValue3decEv.exit.i10, label %67, !prof !11

67:                                               ; preds = %64
  %68 = add i64 %65, 1152920405095219200
  %69 = and i64 %68, 1152920405095219200
  %70 = and i64 %65, -1152920405095219201
  %71 = or disjoint i64 %69, %70
  store i64 %71, ptr %62, align 8
  %72 = icmp eq i64 %69, 0
  br i1 %72, label %73, label %_ZN4cvc58internal4expr9NodeValue3decEv.exit.i10, !prof !11

73:                                               ; preds = %67
  invoke void @_ZN4cvc58internal4expr9NodeValue15markForDeletionEv(ptr noundef nonnull align 8 dereferenceable(24) %62)
          to label %_ZN4cvc58internal4expr9NodeValue3decEv.exit.i10 unwind label %102

_ZN4cvc58internal4expr9NodeValue3decEv.exit.i10:  ; preds = %73, %67, %64
  %74 = load ptr, ptr %3, align 8, !tbaa !3
  store ptr %74, ptr %19, align 8, !tbaa !3
  %75 = load i64, ptr %74, align 8
  %76 = lshr i64 %75, 40
  %77 = trunc nuw nsw i64 %76 to i32
  %78 = and i32 %77, 1048575
  %79 = icmp samesign ult i32 %78, 1048574
  br i1 %79, label %80, label %85, !prof !12

80:                                               ; preds = %_ZN4cvc58internal4expr9NodeValue3decEv.exit.i10
  %81 = add i64 %75, 1099511627776
  %82 = and i64 %81, 1152920405095219200
  %83 = and i64 %75, -1152920405095219201
  %84 = or disjoint i64 %82, %83
  store i64 %84, ptr %74, align 8
  br label %_ZN4cvc58internal12NodeTemplateILb1EEaSERKS2_.exit12

85:                                               ; preds = %_ZN4cvc58internal4expr9NodeValue3decEv.exit.i10
  %86 = icmp eq i32 %78, 1048574
  br i1 %86, label %87, label %_ZN4cvc58internal12NodeTemplateILb1EEaSERKS2_.exit12, !prof !11

87:                                               ; preds = %85
  %88 = or i64 %75, 1152920405095219200
  store i64 %88, ptr %74, align 8
  invoke void @_ZN4cvc58internal4expr9NodeValue20markRefCountMaxedOutEv(ptr noundef nonnull align 8 dereferenceable(24) %74)
          to label %_ZN4cvc58internal12NodeTemplateILb1EEaSERKS2_.exit12 unwind label %102

_ZN4cvc58internal12NodeTemplateILb1EEaSERKS2_.exit12: ; preds = %85, %80, %61, %87
  %89 = load ptr, ptr %3, align 8, !tbaa !3
  %90 = load i64, ptr %89, align 8
  %91 = and i64 %90, 1152920405095219200
  %.not.i.i13 = icmp eq i64 %91, 1152920405095219200
  br i1 %.not.i.i13, label %_ZN4cvc58internal12NodeTemplateILb1EED2Ev.exit, label %92, !prof !11

92:                                               ; preds = %_ZN4cvc58internal12NodeTemplateILb1EEaSERKS2_.exit12
  %93 = add i64 %90, 1152920405095219200
  %94 = and i64 %93, 1152920405095219200
  %95 = and i64 %90, -1152920405095219201
  %96 = or disjoint i64 %94, %95
  store i64 %96, ptr %89, align 8
  %97 = icmp eq i64 %94, 0
  br i1 %97, label %98, label %_ZN4cvc58internal12NodeTemplateILb1EED2Ev.exit, !prof !11

98:                                               ; preds = %92
  invoke void @_ZN4cvc58internal4expr9NodeValue15markForDeletionEv(ptr noundef nonnull align 8 dereferenceable(24) %89)
          to label %_ZN4cvc58internal12NodeTemplateILb1EED2Ev.exit unwind label %99

99:                                               ; preds = %98
  %100 = landingpad { ptr, i32 }
          catch ptr null
  %101 = extractvalue { ptr, i32 } %100, 0
  call void @__clang_call_terminate(ptr %101) #20
  unreachable

_ZN4cvc58internal12NodeTemplateILb1EED2Ev.exit:   ; preds = %_ZN4cvc58internal12NodeTemplateILb1EEaSERKS2_.exit12, %92, %98
  call void @llvm.lifetime.end.p0(i64 8, ptr nonnull %3) #19
  br label %_ZN4cvc58internal12NodeTemplateILb1EEaSERKS2_.exit

102:                                              ; preds = %87, %73
  %103 = landingpad { ptr, i32 }
          cleanup
  call void @_ZN4cvc58internal12NodeTemplateILb1EED2Ev(ptr noundef nonnull align 8 dereferenceable(8) %3) #19
  call void @llvm.lifetime.end.p0(i64 8, ptr nonnull %3) #19
  br label %common.resume

_ZN4cvc58internal12NodeTemplateILb1EEaSERKS2_.exit: ; preds = %59, %57, %52, %33, %_ZNK4cvc58internal12NodeTemplateILb1EE6isNullEv.exit, %_ZN4cvc58internal12NodeTemplateILb1EED2Ev.exit
  ret void
}